target datalayout = "e-m:e-p270:32:32-p271:32:32-p272:64:64-i64:64-i128:128-f80:128-n8:16:32:64-S128"
target triple = "x86_64-pc-linux-gnu"

%"class.draco::IndexType.28" = type { i32 }
%"class.draco::IndexType.29" = type { i32 }
%"class.draco::CornerTable" = type { %"class.draco::IndexTypeVector", %"class.draco::IndexTypeVector.0", %"class.draco::IndexTypeVector.6", i32, i32, i32, %"class.draco::IndexTypeVector.7", %"class.draco::ValenceCache" }
%"class.draco::IndexTypeVector" = type { %"class.std::vector" }
%"class.std::vector" = type { %"struct.std::_Vector_base" }
%"struct.std::_Vector_base" = type { %"struct.std::_Vector_base<draco::IndexType<unsigned int, draco::VertexIndex_tag_type_>, std::allocator<draco::IndexType<unsigned int, draco::VertexIndex_tag_type_>>>::_Vector_impl" }
%"struct.std::_Vector_base<draco::IndexType<unsigned int, draco::VertexIndex_tag_type_>, std::allocator<draco::IndexType<unsigned int, draco::VertexIndex_tag_type_>>>::_Vector_impl" = type { %"struct.std::_Vector_base<draco::IndexType<unsigned int, draco::VertexIndex_tag_type_>, std::allocator<draco::IndexType<unsigned int, draco::VertexIndex_tag_type_>>>::_Vector_impl_data" }
%"struct.std::_Vector_base<draco::IndexType<unsigned int, draco::VertexIndex_tag_type_>, std::allocator<draco::IndexType<unsigned int, draco::VertexIndex_tag_type_>>>::_Vector_impl_data" = type { ptr, ptr, ptr }
%"class.draco::IndexTypeVector.0" = type { %"class.std::vector.1" }
%"class.std::vector.1" = type { %"struct.std::_Vector_base.2" }
%"struct.std::_Vector_base.2" = type { %"struct.std::_Vector_base<draco::IndexType<unsigned int, draco::CornerIndex_tag_type_>, std::allocator<draco::IndexType<unsigned int, draco::CornerIndex_tag_type_>>>::_Vector_impl" }
%"struct.std::_Vector_base<draco::IndexType<unsigned int, draco::CornerIndex_tag_type_>, std::allocator<draco::IndexType<unsigned int, draco::CornerIndex_tag_type_>>>::_Vector_impl" = type { %"struct.std::_Vector_base<draco::IndexType<unsigned int, draco::CornerIndex_tag_type_>, std::allocator<draco::IndexType<unsigned int, draco::CornerIndex_tag_type_>>>::_Vector_impl_data" }
%"struct.std::_Vector_base<draco::IndexType<unsigned int, draco::CornerIndex_tag_type_>, std::allocator<draco::IndexType<unsigned int, draco::CornerIndex_tag_type_>>>::_Vector_impl_data" = type { ptr, ptr, ptr }
%"class.draco::IndexTypeVector.6" = type { %"class.std::vector.1" }
%"class.draco::IndexTypeVector.7" = type { %"class.std::vector" }
%"class.draco::ValenceCache" = type { ptr, %"class.draco::IndexTypeVector.8", %"class.draco::IndexTypeVector.14" }
%"class.draco::IndexTypeVector.8" = type { %"class.std::vector.9" }
%"class.std::vector.9" = type { %"struct.std::_Vector_base.10" }
%"struct.std::_Vector_base.10" = type { %"struct.std::_Vector_base<signed char, std::allocator<signed char>>::_Vector_impl" }
%"struct.std::_Vector_base<signed char, std::allocator<signed char>>::_Vector_impl" = type { %"struct.std::_Vector_base<signed char, std::allocator<signed char>>::_Vector_impl_data" }
%"struct.std::_Vector_base<signed char, std::allocator<signed char>>::_Vector_impl_data" = type { ptr, ptr, ptr }
%"class.draco::IndexTypeVector.14" = type { %"class.std::vector.15" }
%"class.std::vector.15" = type { %"struct.std::_Vector_base.16" }
%"struct.std::_Vector_base.16" = type { %"struct.std::_Vector_base<int, std::allocator<int>>::_Vector_impl" }
%"struct.std::_Vector_base<int, std::allocator<int>>::_Vector_impl" = type { %"struct.std::_Vector_base<int, std::allocator<int>>::_Vector_impl_data" }
%"struct.std::_Vector_base<int, std::allocator<int>>::_Vector_impl_data" = type { ptr, ptr, ptr }
%"class.draco::VertexCornersIterator" = type <{ ptr, %"class.draco::IndexType.29", %"class.draco::IndexType.29", i8, [7 x i8] }>

@_ZN5dracoL19kInvalidCornerIndexE = internal constant %"class.draco::IndexType.29" { i32 -1 }, align 4

; Function Attrs: mustprogress nounwind uwtable
define linkonce_odr noundef nonnull align 4 dereferenceable(4) ptr @_ZNKSt6vectorIN5draco9IndexTypeIjNS0_21CornerIndex_tag_type_EEESaIS3_EEixEm(ptr noundef nonnull align 8 dereferenceable(24) %0, i64 noundef %1) #5 comdat align 2 {
  %3 = alloca ptr, align 8
  %4 = alloca i64, align 8
  store ptr %0, ptr %3, align 8, !tbaa !172
  store i64 %1, ptr %4, align 8, !tbaa !63
  %5 = load ptr, ptr %3, align 8
  %6 = getelementptr inbounds nuw %"struct.std::_Vector_base.2", ptr %5, i32 0, i32 0
  %7 = getelementptr inbounds nuw %"struct.std::_Vector_base<draco::IndexType<unsigned int, draco::CornerIndex_tag_type_>, std::allocator<draco::IndexType<unsigned int, draco::CornerIndex_tag_type_>>>::_Vector_impl_data", ptr %6, i32 0, i32 0
  %8 = load ptr, ptr %7, align 8, !tbaa !174
  %9 = load i64, ptr %4, align 8, !tbaa !63
  %10 = getelementptr inbounds nuw %"class.draco::IndexType.29", ptr %8, i64 %9
  ret ptr %10
}

; Function Attrs: mustprogress nounwind uwtable
define linkonce_odr noundef i32 @_ZNK5draco9IndexTypeIjNS_21VertexIndex_tag_type_EE5valueEv(ptr noundef nonnull align 4 dereferenceable(4) %0) #5 comdat align 2 {
  %2 = alloca ptr, align 8
  store ptr %0, ptr %2, align 8, !tbaa !75
  %3 = load ptr, ptr %2, align 8
  %4 = getelementptr inbounds nuw %"class.draco::IndexType.28", ptr %3, i32 0, i32 0
  %5 = load i32, ptr %4, align 4, !tbaa !76
  ret i32 %5
}

; Function Attrs: inlinehint mustprogress nounwind uwtable
define linkonce_odr noundef nonnull align 4 dereferenceable(4) ptr @_ZNK5draco15IndexTypeVectorINS_9IndexTypeIjNS_21VertexIndex_tag_type_EEENS1_IjNS_21CornerIndex_tag_type_EEEEixERKS3_(ptr noundef nonnull align 8 dereferenceable(24) %0, ptr noundef nonnull align 4 dereferenceable(4) %1) #6 comdat align 2 {
  %3 = alloca ptr, align 8
  %4 = alloca ptr, align 8
  store ptr %0, ptr %3, align 8, !tbaa !44
  store ptr %1, ptr %4, align 8, !tbaa !75
  %5 = load ptr, ptr %3, align 8
  %6 = getelementptr inbounds nuw %"class.draco::IndexTypeVector.6", ptr %5, i32 0, i32 0
  %7 = load ptr, ptr %4, align 8, !tbaa !75
  %8 = call noundef i32 @_ZNK5draco9IndexTypeIjNS_21VertexIndex_tag_type_EE5valueEv(ptr noundef nonnull align 4 dereferenceable(4) %7)
  %9 = zext i32 %8 to i64
  %10 = call noundef nonnull align 4 dereferenceable(4) ptr @_ZNKSt6vectorIN5draco9IndexTypeIjNS0_21CornerIndex_tag_type_EEESaIS3_EEixEm(ptr noundef nonnull align 8 dereferenceable(24) %6, i64 noundef %9) #3
  ret ptr %10
}

; Function Attrs: mustprogress nounwind uwtable
define linkonce_odr noundef nonnull align 4 dereferenceable(4) ptr @_ZNSt6vectorIN5draco9IndexTypeIjNS0_21VertexIndex_tag_type_EEESaIS3_EEixEm(ptr noundef nonnull align 8 dereferenceable(24) %0, i64 noundef %1) #5 comdat align 2 {
  %3 = alloca ptr, align 8
  %4 = alloca i64, align 8
  store ptr %0, ptr %3, align 8, !tbaa !161
  store i64 %1, ptr %4, align 8, !tbaa !63
  %5 = load ptr, ptr %3, align 8
  %6 = getelementptr inbounds nuw %"struct.std::_Vector_base", ptr %5, i32 0, i32 0
  %7 = getelementptr inbounds nuw %"struct.std::_Vector_base<draco::IndexType<unsigned int, draco::VertexIndex_tag_type_>, std::allocator<draco::IndexType<unsigned int, draco::VertexIndex_tag_type_>>>::_Vector_impl_data", ptr %6, i32 0, i32 0
  %8 = load ptr, ptr %7, align 8, !tbaa !163
  %9 = load i64, ptr %4, align 8, !tbaa !63
  %10 = getelementptr inbounds nuw %"class.draco::IndexType.28", ptr %8, i64 %9
  ret ptr %10
}

; Function Attrs: mustprogress nounwind uwtable
define linkonce_odr noundef i32 @_ZNK5draco9IndexTypeIjNS_21CornerIndex_tag_type_EE5valueEv(ptr noundef nonnull align 4 dereferenceable(4) %0) #5 comdat align 2 {
  %2 = alloca ptr, align 8
  store ptr %0, ptr %2, align 8, !tbaa !72
  %3 = load ptr, ptr %2, align 8
  %4 = getelementptr inbounds nuw %"class.draco::IndexType.29", ptr %3, i32 0, i32 0
  %5 = load i32, ptr %4, align 4, !tbaa !73
  ret i32 %5
}

; Function Attrs: mustprogress nounwind uwtable
define linkonce_odr i32 @_ZNK5draco21VertexCornersIteratorINS_11CornerTableEE6CornerEv(ptr noundef nonnull align 8 dereferenceable(17) %0) #5 comdat align 2 {
  %2 = alloca %"class.draco::IndexType.29", align 4
  %3 = alloca ptr, align 8
  store ptr %0, ptr %3, align 8, !tbaa !156
  %4 = load ptr, ptr %3, align 8
  %5 = getelementptr inbounds nuw %"class.draco::VertexCornersIterator", ptr %4, i32 0, i32 2
  call void @llvm.memcpy.p0.p0.i64(ptr align 4 %2, ptr align 4 %5, i64 4, i1 false), !tbaa.struct !55
  %6 = getelementptr inbounds nuw %"class.draco::IndexType.29", ptr %2, i32 0, i32 0
  %7 = load i32, ptr %6, align 4
  ret i32 %7
}

; Function Attrs: mustprogress nounwind uwtable
define linkonce_odr noundef zeroext i1 @_ZNK5draco9IndexTypeIjNS_21CornerIndex_tag_type_EEeqERKS2_(ptr noundef nonnull align 4 dereferenceable(4) %0, ptr noundef nonnull align 4 dereferenceable(4) %1) #5 comdat align 2 {
  %3 = alloca ptr, align 8
  %4 = alloca ptr, align 8
  store ptr %0, ptr %3, align 8, !tbaa !72
  store ptr %1, ptr %4, align 8, !tbaa !72
  %5 = load ptr, ptr %3, align 8
  %6 = getelementptr inbounds nuw %"class.draco::IndexType.29", ptr %5, i32 0, i32 0
  %7 = load i32, ptr %6, align 4, !tbaa !73
  %8 = load ptr, ptr %4, align 8, !tbaa !72
  %9 = getelementptr inbounds nuw %"class.draco::IndexType.29", ptr %8, i32 0, i32 0
  %10 = load i32, ptr %9, align 4, !tbaa !73
  %11 = icmp eq i32 %7, %10
  ret i1 %11
}

; Function Attrs: inlinehint mustprogress uwtable
define linkonce_odr i32 @_ZNK5draco11CornerTable14LeftMostCornerENS_9IndexTypeIjNS_21VertexIndex_tag_type_EEE(ptr noundef nonnull align 8 dereferenceable(168) %0, i32 %1) #10 comdat align 2 {
  %3 = alloca %"class.draco::IndexType.29", align 4
  %4 = alloca %"class.draco::IndexType.28", align 4
  %5 = alloca ptr, align 8
  %6 = getelementptr inbounds nuw %"class.draco::IndexType.28", ptr %4, i32 0, i32 0
  store i32 %1, ptr %6, align 4
  store ptr %0, ptr %5, align 8, !tbaa !3
  %7 = load ptr, ptr %5, align 8
  %8 = getelementptr inbounds nuw %"class.draco::CornerTable", ptr %7, i32 0, i32 2
  %9 = call noundef nonnull align 4 dereferenceable(4) ptr @_ZNK5draco15IndexTypeVectorINS_9IndexTypeIjNS_21VertexIndex_tag_type_EEENS1_IjNS_21CornerIndex_tag_type_EEEEixERKS3_(ptr noundef nonnull align 8 dereferenceable(24) %8, ptr noundef nonnull align 4 dereferenceable(4) %4)
  call void @llvm.memcpy.p0.p0.i64(ptr align 4 %3, ptr align 4 %9, i64 4, i1 false), !tbaa.struct !55
  %10 = getelementptr inbounds nuw %"class.draco::IndexType.29", ptr %3, i32 0, i32 0
  %11 = load i32, ptr %10, align 4
  ret i32 %11
}

; Function Attrs: mustprogress uwtable
define linkonce_odr noundef nonnull align 8 dereferenceable(17) ptr @_ZN5draco21VertexCornersIteratorINS_11CornerTableEEppEv(ptr noundef nonnull align 8 dereferenceable(17) %0) #4 comdat align 2 {
  %2 = alloca ptr, align 8
  store ptr %0, ptr %2, align 8, !tbaa !156
  %3 = load ptr, ptr %2, align 8
  call void @_ZN5draco21VertexCornersIteratorINS_11CornerTableEE4NextEv(ptr noundef nonnull align 8 dereferenceable(17) %3)
  ret ptr %3
}

; Function Attrs: inlinehint mustprogress nounwind uwtable
define linkonce_odr noundef nonnull align 4 dereferenceable(4) ptr @_ZN5draco9IndexTypeIjNS_21VertexIndex_tag_type_EEaSERKS2_(ptr noundef nonnull align 4 dereferenceable(4) %0, ptr noundef nonnull align 4 dereferenceable(4) %1) #6 comdat align 2 {
  %3 = alloca ptr, align 8
  %4 = alloca ptr, align 8
  store ptr %0, ptr %3, align 8, !tbaa !75
  store ptr %1, ptr %4, align 8, !tbaa !75
  %5 = load ptr, ptr %3, align 8
  %6 = load ptr, ptr %4, align 8, !tbaa !75
  %7 = getelementptr inbounds nuw %"class.draco::IndexType.28", ptr %6, i32 0, i32 0
  %8 = load i32, ptr %7, align 4, !tbaa !76
  %9 = getelementptr inbounds nuw %"class.draco::IndexType.28", ptr %5, i32 0, i32 0
  store i32 %8, ptr %9, align 4, !tbaa !76
  ret ptr %5
}

; Function Attrs: inlinehint mustprogress nounwind uwtable
define linkonce_odr noundef nonnull align 4 dereferenceable(4) ptr @_ZN5draco15IndexTypeVectorINS_9IndexTypeIjNS_21CornerIndex_tag_type_EEENS1_IjNS_21VertexIndex_tag_type_EEEEixERKS3_(ptr noundef nonnull align 8 dereferenceable(24) %0, ptr noundef nonnull align 4 dereferenceable(4) %1) #6 comdat align 2 {
  %3 = alloca ptr, align 8
  %4 = alloca ptr, align 8
  store ptr %0, ptr %3, align 8, !tbaa !40
  store ptr %1, ptr %4, align 8, !tbaa !72
  %5 = load ptr, ptr %3, align 8
  %6 = getelementptr inbounds nuw %"class.draco::IndexTypeVector", ptr %5, i32 0, i32 0
  %7 = load ptr, ptr %4, align 8, !tbaa !72
  %8 = call noundef i32 @_ZNK5draco9IndexTypeIjNS_21CornerIndex_tag_type_EE5valueEv(ptr noundef nonnull align 4 dereferenceable(4) %7)
  %9 = zext i32 %8 to i64
  %10 = call noundef nonnull align 4 dereferenceable(4) ptr @_ZNSt6vectorIN5draco9IndexTypeIjNS0_21VertexIndex_tag_type_EEESaIS3_EEixEm(ptr noundef nonnull align 8 dereferenceable(24) %6, i64 noundef %9) #3
  ret ptr %10
}

; Function Attrs: mustprogress uwtable
define linkonce_odr i32 @_ZNK5draco21VertexCornersIteratorINS_11CornerTableEEdeEv(ptr noundef nonnull align 8 dereferenceable(17) %0) #4 comdat align 2 {
  %2 = alloca %"class.draco::IndexType.29", align 4
  %3 = alloca ptr, align 8
  store ptr %0, ptr %3, align 8, !tbaa !156
  %4 = load ptr, ptr %3, align 8
  %5 = call i32 @_ZNK5draco21VertexCornersIteratorINS_11CornerTableEE6CornerEv(ptr noundef nonnull align 8 dereferenceable(17) %4)
  %6 = getelementptr inbounds nuw %"class.draco::IndexType.29", ptr %2, i32 0, i32 0
  store i32 %5, ptr %6, align 4
  %7 = getelementptr inbounds nuw %"class.draco::IndexType.29", ptr %2, i32 0, i32 0
  %8 = load i32, ptr %7, align 4
  ret i32 %8
}

; Function Attrs: mustprogress nounwind uwtable
define linkonce_odr noundef zeroext i1 @_ZNK5draco21VertexCornersIteratorINS_11CornerTableEE3EndEv(ptr noundef nonnull align 8 dereferenceable(17) %0) #5 comdat align 2 {
  %2 = alloca ptr, align 8
  store ptr %0, ptr %2, align 8, !tbaa !156
  %3 = load ptr, ptr %2, align 8
  %4 = getelementptr inbounds nuw %"class.draco::VertexCornersIterator", ptr %3, i32 0, i32 2
  %5 = call noundef zeroext i1 @_ZNK5draco9IndexTypeIjNS_21CornerIndex_tag_type_EEeqERKS2_(ptr noundef nonnull align 4 dereferenceable(4) %4, ptr noundef nonnull align 4 dereferenceable(4) @_ZN5dracoL19kInvalidCornerIndexE)
  ret i1 %5
}

; Function Attrs: mustprogress uwtable
define linkonce_odr void @_ZN5draco21VertexCornersIteratorINS_11CornerTableEEC2EPKS1_NS_9IndexTypeIjNS_21VertexIndex_tag_type_EEE(ptr noundef nonnull align 8 dereferenceable(17) %0, ptr noundef %1, i32 %2) unnamed_addr #4 comdat align 2 {
  %4 = alloca %"class.draco::IndexType.28", align 4
  %5 = alloca ptr, align 8
  %6 = alloca ptr, align 8
  %7 = alloca %"class.draco::IndexType.28", align 4
  %8 = getelementptr inbounds nuw %"class.draco::IndexType.28", ptr %4, i32 0, i32 0
  store i32 %2, ptr %8, align 4
  store ptr %0, ptr %5, align 8, !tbaa !156
  store ptr %1, ptr %6, align 8, !tbaa !3
  %9 = load ptr, ptr %5, align 8
  %10 = getelementptr inbounds nuw %"class.draco::VertexCornersIterator", ptr %9, i32 0, i32 0
  %11 = load ptr, ptr %6, align 8, !tbaa !3
  store ptr %11, ptr %10, align 8, !tbaa !158
  %12 = getelementptr inbounds nuw %"class.draco::VertexCornersIterator", ptr %9, i32 0, i32 1
  %13 = load ptr, ptr %6, align 8, !tbaa !3
  call void @llvm.memcpy.p0.p0.i64(ptr align 4 %7, ptr align 4 %4, i64 4, i1 false), !tbaa.struct !55
  %14 = getelementptr inbounds nuw %"class.draco::IndexType.28", ptr %7, i32 0, i32 0
  %15 = load i32, ptr %14, align 4
  %16 = call i32 @_ZNK5draco11CornerTable14LeftMostCornerENS_9IndexTypeIjNS_21VertexIndex_tag_type_EEE(ptr noundef nonnull align 8 dereferenceable(168) %13, i32 %15)
  %17 = getelementptr inbounds nuw %"class.draco::IndexType.29", ptr %12, i32 0, i32 0
  store i32 %16, ptr %17, align 8
  %18 = getelementptr inbounds nuw %"class.draco::VertexCornersIterator", ptr %9, i32 0, i32 2
  %19 = getelementptr inbounds nuw %"class.draco::VertexCornersIterator", ptr %9, i32 0, i32 1
  call void @llvm.memcpy.p0.p0.i64(ptr align 4 %18, ptr align 8 %19, i64 4, i1 false), !tbaa.struct !55
  %20 = getelementptr inbounds nuw %"class.draco::VertexCornersIterator", ptr %9, i32 0, i32 3
  store i8 1, ptr %20, align 8, !tbaa !160
  ret void
}

; Function Attrs: mustprogress uwtable
define void @_ZN5draco11CornerTable21UpdateFaceToVertexMapENS_9IndexTypeIjNS_21VertexIndex_tag_type_EEE(ptr noundef nonnull align 8 dereferenceable(168) %0, i32 %1) #4 align 2 {
  %3 = alloca %"class.draco::IndexType.28", align 4
  %4 = alloca ptr, align 8
  %5 = alloca %"class.draco::VertexCornersIterator", align 8
  %6 = alloca %"class.draco::IndexType.28", align 4
  %7 = alloca %"class.draco::IndexType.29", align 4
  %8 = getelementptr inbounds nuw %"class.draco::IndexType.28", ptr %3, i32 0, i32 0
  store i32 %1, ptr %8, align 4
  store ptr %0, ptr %4, align 8, !tbaa !3
  %9 = load ptr, ptr %4, align 8
  call void @llvm.lifetime.start.p0(i64 24, ptr %5) #3
  call void @llvm.memcpy.p0.p0.i64(ptr align 4 %6, ptr align 4 %3, i64 4, i1 false), !tbaa.struct !55
  %10 = getelementptr inbounds nuw %"class.draco::IndexType.28", ptr %6, i32 0, i32 0
  %11 = load i32, ptr %10, align 4
  call void @_ZN5draco21VertexCornersIteratorINS_11CornerTableEEC2EPKS1_NS_9IndexTypeIjNS_21VertexIndex_tag_type_EEE(ptr noundef nonnull align 8 dereferenceable(17) %5, ptr noundef %9, i32 %11)
  br label %12

12:                                               ; preds = %21, %2
  %13 = call noundef zeroext i1 @_ZNK5draco21VertexCornersIteratorINS_11CornerTableEE3EndEv(ptr noundef nonnull align 8 dereferenceable(17) %5)
  %14 = xor i1 %13, true
  br i1 %14, label %15, label %23

15:                                               ; preds = %12
  call void @llvm.lifetime.start.p0(i64 4, ptr %7) #3
  %16 = call i32 @_ZNK5draco21VertexCornersIteratorINS_11CornerTableEEdeEv(ptr noundef nonnull align 8 dereferenceable(17) %5)
  %17 = getelementptr inbounds nuw %"class.draco::IndexType.29", ptr %7, i32 0, i32 0
  store i32 %16, ptr %17, align 4
  %18 = getelementptr inbounds nuw %"class.draco::CornerTable", ptr %9, i32 0, i32 0
  %19 = call noundef nonnull align 4 dereferenceable(4) ptr @_ZN5draco15IndexTypeVectorINS_9IndexTypeIjNS_21CornerIndex_tag_type_EEENS1_IjNS_21VertexIndex_tag_type_EEEEixERKS3_(ptr noundef nonnull align 8 dereferenceable(24) %18, ptr noundef nonnull align 4 dereferenceable(4) %7)
  %20 = call noundef nonnull align 4 dereferenceable(4) ptr @_ZN5draco9IndexTypeIjNS_21VertexIndex_tag_type_EEaSERKS2_(ptr noundef nonnull align 4 dereferenceable(4) %19, ptr noundef nonnull align 4 dereferenceable(4) %3)
  call void @llvm.lifetime.end.p0(i64 4, ptr %7) #3
  br label %21

21:                                               ; preds = %15
  %22 = call noundef nonnull align 8 dereferenceable(17) ptr @_ZN5draco21VertexCornersIteratorINS_11CornerTableEEppEv(ptr noundef nonnull align 8 dereferenceable(17) %5)
  br label %12, !llvm.loop !155

23:                                               ; preds = %12
  call void @llvm.lifetime.end.p0(i64 24, ptr %5) #3
  ret void
}