; Function Attrs: mustprogress uwtable
define void @_ZN5draco11CornerTable21UpdateFaceToVertexMapENS_9IndexTypeIjNS_21VertexIndex_tag_type_EEE(ptr noundef nonnull align 8 dereferenceable(168) %0, i32 %1) local_unnamed_addr #4 align 2 {
  %3 = alloca %"class.draco::VertexCornersIterator", align 8
  call void @llvm.lifetime.start.p0(i64 24, ptr nonnull %3) #18
  store ptr %0, ptr %3, align 8, !tbaa !112
  %4 = getelementptr inbounds nuw i8, ptr %3, i64 8
  %5 = getelementptr inbounds nuw i8, ptr %0, i64 48
  %6 = zext i32 %1 to i64
  %7 = load ptr, ptr %5, align 8, !tbaa !36
  %8 = getelementptr inbounds nuw %"class.draco::IndexType.29", ptr %7, i64 %6
  %.sroa.0.0.copyload.i.i = load i32, ptr %8, align 4, !tbaa !25
  store i32 %.sroa.0.0.copyload.i.i, ptr %4, align 8
  %9 = getelementptr inbounds nuw i8, ptr %3, i64 12
  store i32 %.sroa.0.0.copyload.i.i, ptr %9, align 4, !tbaa !25
  %10 = getelementptr inbounds nuw i8, ptr %3, i64 16
  store i8 1, ptr %10, align 8, !tbaa !115
  %11 = icmp eq i32 %.sroa.0.0.copyload.i.i, -1
  br i1 %11, label %._crit_edge, label %.lr.ph

.lr.ph:                                           ; preds = %2, %.lr.ph
  %12 = phi i32 [ %.pr, %.lr.ph ], [ %.sroa.0.0.copyload.i.i, %2 ]
  %13 = zext i32 %12 to i64
  %14 = load ptr, ptr %0, align 8, !tbaa !22
  %15 = getelementptr inbounds nuw %"class.draco::IndexType.28", ptr %14, i64 %13
  store i32 %1, ptr %15, align 4, !tbaa !29
  call void @_ZN5draco21VertexCornersIteratorINS_11CornerTableEE4NextEv(ptr noundef nonnull align 8 dereferenceable(17) %3)
  %.pr = load i32, ptr %9, align 4, !tbaa !61
  %16 = icmp eq i32 %.pr, -1
  br i1 %16, label %._crit_edge, label %.lr.ph, !llvm.loop !116

._crit_edge:                                      ; preds = %.lr.ph, %2
  call void @llvm.lifetime.end.p0(i64 24, ptr nonnull %3) #18
  ret void
}